; ModuleID = '10/931.c'
source_filename = "10/931.c"
target datalayout = "e-m:e-p270:32:32-p271:32:32-p272:64:64-i64:64-f80:128-n8:16:32:64-S128"
target triple = "x86_64-pc-linux-gnu"

@.str = private unnamed_addr constant [3 x i8] c"%d\00", align 1

; Function Attrs: noinline nounwind uwtable
define dso_local i32 @main() #0 {
  %1 = alloca i32, align 4
  %2 = alloca i32, align 4
  %3 = alloca i32, align 4
  %4 = alloca i32, align 4
  %5 = alloca [30 x i32], align 16
  %6 = alloca [30 x i32], align 16
  %7 = alloca i32, align 4
  store i32 0, i32* %1, align 4
  %8 = call i32 (i8*, ...) @__isoc99_scanf(i8* getelementptr inbounds ([3 x i8], [3 x i8]* @.str, i64 0, i64 0), i32* %2)
  store i32 1, i32* %3, align 4
  br label %9

9:                                                ; preds = %18, %0
  %10 = load i32, i32* %3, align 4
  %11 = load i32, i32* %2, align 4
  %12 = icmp sle i32 %10, %11
  br i1 %12, label %13, label %21

13:                                               ; preds = %9
  %14 = load i32, i32* %3, align 4
  %15 = sext i32 %14 to i64
  %16 = getelementptr inbounds [30 x i32], [30 x i32]* %5, i64 0, i64 %15
  %17 = call i32 (i8*, ...) @__isoc99_scanf(i8* getelementptr inbounds ([3 x i8], [3 x i8]* @.str, i64 0, i64 0), i32* %16)
  br label %18

18:                                               ; preds = %13
  %19 = load i32, i32* %3, align 4
  %20 = add nsw i32 %19, 1
  store i32 %20, i32* %3, align 4
  br label %9

21:                                               ; preds = %9
  %22 = getelementptr inbounds [30 x i32], [30 x i32]* %5, i64 0, i64 0
  store i32 99999, i32* %22, align 16
  %23 = getelementptr inbounds [30 x i32], [30 x i32]* %6, i64 0, i64 0
  store i32 0, i32* %23, align 16
  store i32 1, i32* %3, align 4
  br label %24

24:                                               ; preds = %73, %21
  %25 = load i32, i32* %3, align 4
  %26 = load i32, i32* %2, align 4
  %27 = icmp sle i32 %25, %26
  br i1 %27, label %28, label %76

28:                                               ; preds = %24
  %29 = load i32, i32* %3, align 4
  %30 = sext i32 %29 to i64
  %31 = getelementptr inbounds [30 x i32], [30 x i32]* %6, i64 0, i64 %30
  store i32 1, i32* %31, align 4
  %32 = load i32, i32* %3, align 4
  %33 = sub nsw i32 %32, 1
  store i32 %33, i32* %4, align 4
  br label %34

34:                                               ; preds = %69, %28
  %35 = load i32, i32* %4, align 4
  %36 = icmp sge i32 %35, 0
  br i1 %36, label %37, label %72

37:                                               ; preds = %34
  %38 = load i32, i32* %4, align 4
  %39 = sext i32 %38 to i64
  %40 = getelementptr inbounds [30 x i32], [30 x i32]* %5, i64 0, i64 %39
  %41 = load i32, i32* %40, align 4
  %42 = load i32, i32* %3, align 4
  %43 = sext i32 %42 to i64
  %44 = getelementptr inbounds [30 x i32], [30 x i32]* %5, i64 0, i64 %43
  %45 = load i32, i32* %44, align 4
  %46 = icmp sge i32 %41, %45
  br i1 %46, label %47, label %68

47:                                               ; preds = %37
  %48 = load i32, i32* %4, align 4
  %49 = sext i32 %48 to i64
  %50 = getelementptr inbounds [30 x i32], [30 x i32]* %6, i64 0, i64 %49
  %51 = load i32, i32* %50, align 4
  %52 = add nsw i32 %51, 1
  %53 = load i32, i32* %3, align 4
  %54 = sext i32 %53 to i64
  %55 = getelementptr inbounds [30 x i32], [30 x i32]* %6, i64 0, i64 %54
  %56 = load i32, i32* %55, align 4
  %57 = icmp sgt i32 %52, %56
  br i1 %57, label %58, label %67

58:                                               ; preds = %47
  %59 = load i32, i32* %4, align 4
  %60 = sext i32 %59 to i64
  %61 = getelementptr inbounds [30 x i32], [30 x i32]* %6, i64 0, i64 %60
  %62 = load i32, i32* %61, align 4
  %63 = add nsw i32 %62, 1
  %64 = load i32, i32* %3, align 4
  %65 = sext i32 %64 to i64
  %66 = getelementptr inbounds [30 x i32], [30 x i32]* %6, i64 0, i64 %65
  store i32 %63, i32* %66, align 4
  br label %67

67:                                               ; preds = %58, %47
  br label %68

68:                                               ; preds = %67, %37
  br label %69

69:                                               ; preds = %68
  %70 = load i32, i32* %4, align 4
  %71 = add nsw i32 %70, -1
  store i32 %71, i32* %4, align 4
  br label %34

72:                                               ; preds = %34
  br label %73

73:                                               ; preds = %72
  %74 = load i32, i32* %3, align 4
  %75 = add nsw i32 %74, 1
  store i32 %75, i32* %3, align 4
  br label %24

76:                                               ; preds = %24
  store i32 0, i32* %7, align 4
  store i32 1, i32* %3, align 4
  br label %77

77:                                               ; preds = %94, %76
  %78 = load i32, i32* %3, align 4
  %79 = load i32, i32* %2, align 4
  %80 = icmp sle i32 %78, %79
  br i1 %80, label %81, label %97

81:                                               ; preds = %77
  %82 = load i32, i32* %3, align 4
  %83 = sext i32 %82 to i64
  %84 = getelementptr inbounds [30 x i32], [30 x i32]* %6, i64 0, i64 %83
  %85 = load i32, i32* %84, align 4
  %86 = load i32, i32* %7, align 4
  %87 = icmp sgt i32 %85, %86
  br i1 %87, label %88, label %93

88:                                               ; preds = %81
  %89 = load i32, i32* %3, align 4
  %90 = sext i32 %89 to i64
  %91 = getelementptr inbounds [30 x i32], [30 x i32]* %6, i64 0, i64 %90
  %92 = load i32, i32* %91, align 4
  store i32 %92, i32* %7, align 4
  br label %93

93:                                               ; preds = %88, %81
  br label %94

94:                                               ; preds = %93
  %95 = load i32, i32* %3, align 4
  %96 = add nsw i32 %95, 1
  store i32 %96, i32* %3, align 4
  br label %77

97:                                               ; preds = %77
  %98 = load i32, i32* %7, align 4
  %99 = call i32 (i8*, ...) @printf(i8* getelementptr inbounds ([3 x i8], [3 x i8]* @.str, i64 0, i64 0), i32 %98)
  ret i32 0
}

declare dso_local i32 @__isoc99_scanf(i8*, ...) #1

declare dso_local i32 @printf(i8*, ...) #1


!llvm.module.flags = !{!0}
!llvm.ident = !{!1}

!0 = !{i32 1, !"wchar_size", i32 4}
!1 = !{!"clang version 10.0.0-4ubuntu1 "}
